(dp0
I217967871
(dp1
S'mafs'
p2
(lp3
sS'alive'
p4
(lp5
I336632376
aI356009288
aI422583878
asS'cure'
p6
NsS'kill'
p7
(dp8
sS'can_cure'
p9
I01
sS'vote'
p10
(dp11
I336632376
I217967871
sI356009288
I217967871
ssS'cured_known'
p12
I01
sS'roundtime'
p13
F2.0
sS'curetime'
p14
F1.0
sS'cits'
p15
(lp16
I336632376
aI356009288
aI422583878
asS'check'
p17
NsS'delay'
p18
(dp19
I336632376
I0
sI356009288
I0
sI370736965
I0
sI422583878
I3
sI217967871
I0
ssS'can_vote'
p20
I00
sS'mafs_known'
p21
I00
sS'keyboard_ids'
p22
(dp23
I336632376
I13110
sI356009288
I13111
sI422583878
I13112
sI217967871
I13113
ssS'started'
p24
I01
sS'com_count'
p25
I0
sS'mafs_prompt'
p26
I00
sS'can_check'
p27
I01
sS'com_check'
p28
NsS'cits_count'
p29
I3
sS'info'
p30
(dp31
I336632376
Vtelp
p32
sI356009288
Vkonek
p33
sI422583878
Vstas
p34
sI217967871
Vslavik
p35
ssS'goods'
p36
(lp37
I336632376
aI356009288
aI422583878
asS'doc'
p38
NsS'doc_cure'
p39
NsS'doc_count'
p40
I0
sS'can_kill'
p41
I01
sS'com'
p42
NsS'mafs_count'
p43
I1
ss.